; Function Attrs: nounwind uwtable
define dso_local noundef i32 @Curl_http_done(ptr noundef %0, i32 noundef %1, i1 noundef zeroext %2) #0 {
  %4 = getelementptr inbounds nuw i8, ptr %0, i64 24
  %5 = load ptr, ptr %4, align 8, !tbaa !77
  %6 = getelementptr inbounds nuw i8, ptr %0, i64 3296
  %7 = load i8, ptr %6, align 8
  %8 = and i8 %7, -3
  store i8 %8, ptr %6, align 8
  %9 = getelementptr inbounds nuw i8, ptr %0, i64 3328
  %10 = load i8, ptr %9, align 8
  %11 = and i8 %10, -3
  store i8 %11, ptr %9, align 8
  %12 = getelementptr inbounds nuw i8, ptr %0, i64 3040
  tail call void @Curl_dyn_reset(ptr noundef nonnull %12) #11
  %.not = icmp ne i32 %1, 0
  %brmerge = or i1 %.not, %2
  br i1 %brmerge, label %31, label %13

13:                                               ; preds = %3
  %14 = getelementptr inbounds nuw i8, ptr %5, i64 920
  %15 = load i64, ptr %14, align 8
  %16 = and i64 %15, 16384
  %.not15 = icmp eq i64 %16, 0
  br i1 %.not15, label %17, label %31

17:                                               ; preds = %13
  %18 = getelementptr inbounds nuw i8, ptr %0, i64 2561
  %19 = load i8, ptr %18, align 1, !tbaa !109
  %.not16 = icmp eq i8 %19, 0
  br i1 %.not16, label %20, label %31

20:                                               ; preds = %17
  %21 = getelementptr inbounds nuw i8, ptr %0, i64 248
  %22 = load i64, ptr %21, align 8, !tbaa !110
  %23 = getelementptr inbounds nuw i8, ptr %0, i64 280
  %24 = load i32, ptr %23, align 8, !tbaa !111
  %25 = zext i32 %24 to i64
  %26 = add nsw i64 %22, %25
  %27 = getelementptr inbounds nuw i8, ptr %0, i64 288
  %28 = load i32, ptr %27, align 8, !tbaa !112
  %29 = zext i32 %28 to i64
  %.not17 = icmp sgt i64 %26, %29
  br i1 %.not17, label %31, label %30

30:                                               ; preds = %20
  tail call void (ptr, ptr, ...) @Curl_failf(ptr noundef nonnull %0, ptr noundef nonnull @.str.10) #11
  tail call void @Curl_conncontrol(ptr noundef nonnull %5, i32 noundef 2) #11
  br label %31

31:                                               ; preds = %3, %13, %17, %20, %30
  %.0 = phi i32 [ 52, %30 ], [ %1, %3 ], [ 0, %20 ], [ 0, %17 ], [ 0, %13 ]
  ret i32 %.0
}